target datalayout = "e-m:e-p270:32:32-p271:32:32-p272:64:64-i64:64-i128:128-f80:128-n8:16:32:64-S128"
target triple = "x86_64-pc-linux-gnu"

%struct.wtap = type { ptr, ptr, i8, i32, i32, ptr, ptr, ptr, i32, ptr, ptr, ptr, ptr, ptr, ptr, ptr, ptr, ptr, ptr, i32, i32, ptr, ptr, ptr, ptr }
%struct.capsa_t = type { i16, i32, i32, i64, [200 x i32] }

; Function Attrs: null_pointer_is_valid sspstrong uwtable
define internal zeroext i1 @capsa_read(ptr noundef %0, ptr noundef %1, ptr noundef %2, ptr noundef %3, ptr noundef %4) #0 {
  %6 = alloca i1, align 1
  %7 = alloca ptr, align 8
  %8 = alloca ptr, align 8
  %9 = alloca ptr, align 8
  %10 = alloca ptr, align 8
  %11 = alloca ptr, align 8
  %12 = alloca ptr, align 8
  %13 = alloca i32, align 4
  %14 = alloca i32, align 4
  %15 = alloca i32, align 4
  store ptr %0, ptr %7, align 8
  store ptr %1, ptr %8, align 8
  store ptr %2, ptr %9, align 8
  store ptr %3, ptr %10, align 8
  store ptr %4, ptr %11, align 8
  call void @llvm.lifetime.start.p0(i64 8, ptr %12) #8
  %16 = load ptr, ptr %7, align 8
  %17 = getelementptr inbounds nuw %struct.wtap, ptr %16, i32 0, i32 13
  %18 = load ptr, ptr %17, align 8
  store ptr %18, ptr %12, align 8
  call void @llvm.lifetime.start.p0(i64 4, ptr %13) #8
  call void @llvm.lifetime.start.p0(i64 4, ptr %14) #8
  %19 = load ptr, ptr %12, align 8
  %20 = getelementptr inbounds nuw %struct.capsa_t, ptr %19, i32 0, i32 2
  %21 = load i32, ptr %20, align 8
  %22 = load ptr, ptr %12, align 8
  %23 = getelementptr inbounds nuw %struct.capsa_t, ptr %22, i32 0, i32 1
  %24 = load i32, ptr %23, align 4
  %25 = icmp eq i32 %21, %24
  br i1 %25, label %26, label %28

26:                                               ; preds = %5
  %27 = load ptr, ptr %9, align 8
  store i32 0, ptr %27, align 4
  store i1 false, ptr %6, align 1
  store i32 1, ptr %15, align 4
  br label %120

28:                                               ; preds = %5
  %29 = load ptr, ptr %12, align 8
  %30 = getelementptr inbounds nuw %struct.capsa_t, ptr %29, i32 0, i32 2
  %31 = load i32, ptr %30, align 8
  %32 = urem i32 %31, 200
  store i32 %32, ptr %13, align 4
  %33 = load i32, ptr %13, align 4
  %34 = icmp eq i32 %33, 0
  br i1 %34, label %35, label %68

35:                                               ; preds = %28
  %36 = load ptr, ptr %7, align 8
  %37 = getelementptr inbounds nuw %struct.wtap, ptr %36, i32 0, i32 0
  %38 = load ptr, ptr %37, align 8
  %39 = call i64 @file_tell(ptr noundef %38)
  %40 = load ptr, ptr %12, align 8
  %41 = getelementptr inbounds nuw %struct.capsa_t, ptr %40, i32 0, i32 3
  store i64 %39, ptr %41, align 8
  %42 = load ptr, ptr %7, align 8
  %43 = getelementptr inbounds nuw %struct.wtap, ptr %42, i32 0, i32 0
  %44 = load ptr, ptr %43, align 8
  %45 = load ptr, ptr %9, align 8
  %46 = load ptr, ptr %10, align 8
  %47 = call zeroext i1 @wtap_read_bytes(ptr noundef %44, ptr noundef null, i32 noundef 1, ptr noundef %45, ptr noundef %46)
  br i1 %47, label %49, label %48

48:                                               ; preds = %35
  store i1 false, ptr %6, align 1
  store i32 1, ptr %15, align 4
  br label %120

49:                                               ; preds = %35
  %50 = load ptr, ptr %7, align 8
  %51 = getelementptr inbounds nuw %struct.wtap, ptr %50, i32 0, i32 0
  %52 = load ptr, ptr %51, align 8
  %53 = load ptr, ptr %12, align 8
  %54 = getelementptr inbounds nuw %struct.capsa_t, ptr %53, i32 0, i32 4
  %55 = load ptr, ptr %9, align 8
  %56 = load ptr, ptr %10, align 8
  %57 = call zeroext i1 @wtap_read_bytes(ptr noundef %52, ptr noundef %54, i32 noundef 800, ptr noundef %55, ptr noundef %56)
  br i1 %57, label %59, label %58

58:                                               ; preds = %49
  store i1 false, ptr %6, align 1
  store i32 1, ptr %15, align 4
  br label %120

59:                                               ; preds = %49
  %60 = load ptr, ptr %7, align 8
  %61 = getelementptr inbounds nuw %struct.wtap, ptr %60, i32 0, i32 0
  %62 = load ptr, ptr %61, align 8
  %63 = load ptr, ptr %9, align 8
  %64 = load ptr, ptr %10, align 8
  %65 = call zeroext i1 @wtap_read_bytes(ptr noundef %62, ptr noundef null, i32 noundef 4, ptr noundef %63, ptr noundef %64)
  br i1 %65, label %67, label %66

66:                                               ; preds = %59
  store i1 false, ptr %6, align 1
  store i32 1, ptr %15, align 4
  br label %120

67:                                               ; preds = %59
  br label %68

68:                                               ; preds = %67, %28
  %69 = load ptr, ptr %12, align 8
  %70 = getelementptr inbounds nuw %struct.capsa_t, ptr %69, i32 0, i32 3
  %71 = load i64, ptr %70, align 8
  %72 = load ptr, ptr %12, align 8
  %73 = getelementptr inbounds nuw %struct.capsa_t, ptr %72, i32 0, i32 4
  %74 = load i32, ptr %13, align 4
  %75 = zext i32 %74 to i64
  %76 = getelementptr [200 x i32], ptr %73, i64 0, i64 %75
  %77 = load i32, ptr %76, align 4
  %78 = zext i32 %77 to i64
  %79 = add i64 %71, %78
  %80 = load ptr, ptr %11, align 8
  store i64 %79, ptr %80, align 8
  %81 = load ptr, ptr %7, align 8
  %82 = getelementptr inbounds nuw %struct.wtap, ptr %81, i32 0, i32 0
  %83 = load ptr, ptr %82, align 8
  %84 = load ptr, ptr %11, align 8
  %85 = load i64, ptr %84, align 8
  %86 = load ptr, ptr %9, align 8
  %87 = call i64 @file_seek(ptr noundef %83, i64 noundef %85, i32 noundef 0, ptr noundef %86)
  %88 = icmp ne i64 %87, 0
  br i1 %88, label %90, label %89

89:                                               ; preds = %68
  store i1 false, ptr %6, align 1
  store i32 1, ptr %15, align 4
  br label %120

90:                                               ; preds = %68
  %91 = load ptr, ptr %7, align 8
  %92 = load ptr, ptr %7, align 8
  %93 = getelementptr inbounds nuw %struct.wtap, ptr %92, i32 0, i32 0
  %94 = load ptr, ptr %93, align 8
  %95 = load ptr, ptr %8, align 8
  %96 = load ptr, ptr %9, align 8
  %97 = load ptr, ptr %10, align 8
  %98 = call i32 @capsa_read_packet(ptr noundef %91, ptr noundef %94, ptr noundef %95, ptr noundef %96, ptr noundef %97)
  store i32 %98, ptr %14, align 4
  %99 = load i32, ptr %14, align 4
  %100 = icmp eq i32 %99, -1
  br i1 %100, label %101, label %102

101:                                              ; preds = %90
  store i1 false, ptr %6, align 1
  store i32 1, ptr %15, align 4
  br label %120

102:                                              ; preds = %90
  %103 = load i32, ptr %14, align 4
  %104 = icmp ne i32 %103, 0
  br i1 %104, label %105, label %115

105:                                              ; preds = %102
  %106 = load ptr, ptr %7, align 8
  %107 = getelementptr inbounds nuw %struct.wtap, ptr %106, i32 0, i32 0
  %108 = load ptr, ptr %107, align 8
  %109 = load i32, ptr %14, align 4
  %110 = load ptr, ptr %9, align 8
  %111 = load ptr, ptr %10, align 8
  %112 = call zeroext i1 @wtap_read_bytes(ptr noundef %108, ptr noundef null, i32 noundef %109, ptr noundef %110, ptr noundef %111)
  br i1 %112, label %114, label %113

113:                                              ; preds = %105
  store i1 false, ptr %6, align 1
  store i32 1, ptr %15, align 4
  br label %120

114:                                              ; preds = %105
  br label %115

115:                                              ; preds = %114, %102
  %116 = load ptr, ptr %12, align 8
  %117 = getelementptr inbounds nuw %struct.capsa_t, ptr %116, i32 0, i32 2
  %118 = load i32, ptr %117, align 8
  %119 = add i32 %118, 1
  store i32 %119, ptr %117, align 8
  store i1 true, ptr %6, align 1
  store i32 1, ptr %15, align 4
  br label %120

120:                                              ; preds = %115, %113, %101, %89, %66, %58, %48, %26
  call void @llvm.lifetime.end.p0(i64 4, ptr %14) #8
  call void @llvm.lifetime.end.p0(i64 4, ptr %13) #8
  call void @llvm.lifetime.end.p0(i64 8, ptr %12) #8
  %121 = load i1, ptr %6, align 1
  ret i1 %121
}