; Function Attrs: null_pointer_is_valid sspstrong uwtable
define internal noundef zeroext i1 @capsa_read(ptr noundef readonly captures(none) %0, ptr noundef %1, ptr noundef %2, ptr noundef %3, ptr noundef writeonly captures(none) %4) #0 {
  %6 = getelementptr inbounds nuw i8, ptr %0, i64 96
  %7 = load ptr, ptr %6, align 8
  %8 = getelementptr inbounds nuw i8, ptr %7, i64 8
  %9 = load i32, ptr %8, align 8
  %10 = getelementptr inbounds nuw i8, ptr %7, i64 4
  %11 = load i32, ptr %10, align 4
  %12 = icmp eq i32 %9, %11
  br i1 %12, label %13, label %14

13:                                               ; preds = %5
  store i32 0, ptr %2, align 4
  br label %50

14:                                               ; preds = %5
  %15 = urem i32 %9, 200
  %16 = icmp eq i32 %15, 0
  br i1 %16, label %17, label %30

17:                                               ; preds = %14
  %18 = load ptr, ptr %0, align 8
  %19 = tail call i64 @file_tell(ptr noundef %18)
  %20 = getelementptr inbounds nuw i8, ptr %7, i64 16
  store i64 %19, ptr %20, align 8
  %21 = load ptr, ptr %0, align 8
  %22 = tail call zeroext i1 @wtap_read_bytes(ptr noundef %21, ptr noundef null, i32 noundef 1, ptr noundef %2, ptr noundef %3)
  br i1 %22, label %23, label %50

23:                                               ; preds = %17
  %24 = load ptr, ptr %0, align 8
  %25 = getelementptr inbounds nuw i8, ptr %7, i64 24
  %26 = tail call zeroext i1 @wtap_read_bytes(ptr noundef %24, ptr noundef nonnull %25, i32 noundef 800, ptr noundef %2, ptr noundef %3)
  br i1 %26, label %27, label %50

27:                                               ; preds = %23
  %28 = load ptr, ptr %0, align 8
  %29 = tail call zeroext i1 @wtap_read_bytes(ptr noundef %28, ptr noundef null, i32 noundef 4, ptr noundef %2, ptr noundef %3)
  br i1 %29, label %30, label %50

30:                                               ; preds = %27, %14
  %31 = getelementptr inbounds nuw i8, ptr %7, i64 16
  %32 = load i64, ptr %31, align 8
  %33 = getelementptr inbounds nuw i8, ptr %7, i64 24
  %34 = zext nneg i32 %15 to i64
  %35 = getelementptr [200 x i32], ptr %33, i64 0, i64 %34
  %36 = load i32, ptr %35, align 4
  %37 = zext i32 %36 to i64
  %38 = add i64 %32, %37
  store i64 %38, ptr %4, align 8
  %39 = load ptr, ptr %0, align 8
  %40 = tail call i64 @file_seek(ptr noundef %39, i64 noundef %38, i32 noundef 0, ptr noundef %2)
  %.not = icmp eq i64 %40, 0
  br i1 %.not, label %50, label %41

41:                                               ; preds = %30
  %42 = load ptr, ptr %0, align 8
  %.val = load ptr, ptr %6, align 8
  %.val.val = load i16, ptr %.val, align 8
  %43 = tail call fastcc i32 @capsa_read_packet(i16 %.val.val, ptr noundef %42, ptr noundef %1, ptr noundef %2, ptr noundef %3)
  switch i32 %43, label %44 [
    i32 -1, label %50
    i32 0, label %47
  ]

44:                                               ; preds = %41
  %45 = load ptr, ptr %0, align 8
  %46 = tail call zeroext i1 @wtap_read_bytes(ptr noundef %45, ptr noundef null, i32 noundef %43, ptr noundef %2, ptr noundef %3)
  br i1 %46, label %47, label %50

47:                                               ; preds = %41, %44
  %48 = load i32, ptr %8, align 8
  %49 = add i32 %48, 1
  store i32 %49, ptr %8, align 8
  br label %50

50:                                               ; preds = %44, %41, %30, %27, %23, %17, %47, %13
  %.0 = phi i1 [ false, %13 ], [ true, %47 ], [ false, %17 ], [ false, %23 ], [ false, %27 ], [ false, %30 ], [ false, %41 ], [ false, %44 ]
  ret i1 %.0
}